; Function Attrs: mustprogress nofree norecurse nosync nounwind willreturn memory(argmem: read) uwtable
define hidden i32 @VP8LPredictor11_C(ptr noundef readonly captures(none) %0, ptr noundef readonly captures(none) %1) #0 {
  %3 = load i32, ptr %1, align 4, !tbaa !3
  %4 = load i32, ptr %0, align 4, !tbaa !3
  %5 = getelementptr inbounds i8, ptr %1, i64 -4
  %6 = load i32, ptr %5, align 4, !tbaa !3
  %7 = lshr i32 %3, 24
  %8 = lshr i32 %4, 24
  %9 = lshr i32 %6, 24
  %10 = sub nsw i32 %8, %9
  %11 = sub nsw i32 %7, %9
  %12 = tail call i32 @llvm.abs.i32(i32 %10, i1 true)
  %13 = tail call i32 @llvm.abs.i32(i32 %11, i1 true)
  %14 = lshr i32 %3, 16
  %15 = and i32 %14, 255
  %16 = lshr i32 %4, 16
  %17 = and i32 %16, 255
  %18 = lshr i32 %6, 16
  %19 = and i32 %18, 255
  %20 = sub nsw i32 %17, %19
  %21 = sub nsw i32 %15, %19
  %22 = tail call i32 @llvm.abs.i32(i32 %20, i1 true)
  %23 = tail call i32 @llvm.abs.i32(i32 %21, i1 true)
  %24 = lshr i32 %3, 8
  %25 = and i32 %24, 255
  %26 = lshr i32 %4, 8
  %27 = and i32 %26, 255
  %28 = lshr i32 %6, 8
  %29 = and i32 %28, 255
  %30 = sub nsw i32 %27, %29
  %31 = sub nsw i32 %25, %29
  %32 = tail call i32 @llvm.abs.i32(i32 %30, i1 true)
  %33 = tail call i32 @llvm.abs.i32(i32 %31, i1 true)
  %34 = and i32 %3, 255
  %35 = and i32 %4, 255
  %36 = and i32 %6, 255
  %37 = sub nsw i32 %35, %36
  %38 = sub nsw i32 %34, %36
  %39 = tail call i32 @llvm.abs.i32(i32 %37, i1 true)
  %40 = tail call i32 @llvm.abs.i32(i32 %38, i1 true)
  %.neg5 = add nuw nsw i32 %39, %12
  %41 = add nuw nsw i32 %13, %40
  %42 = add nuw nsw i32 %.neg5, %32
  %43 = add nuw nsw i32 %41, %33
  %44 = add nuw nsw i32 %43, %23
  %45 = sub nsw i32 %42, %44
  %46 = add nsw i32 %45, %22
  %47 = icmp slt i32 %46, 1
  %48 = select i1 %47, i32 %3, i32 %4
  ret i32 %48
}